target datalayout = "e-m:e-p270:32:32-p271:32:32-p272:64:64-i64:64-i128:128-f80:128-n8:16:32:64-S128"
target triple = "x86_64-pc-linux-gnu"

%struct._zend_array = type { %struct._zend_refcounted_h, %union.anon.0, i32, %union.anon.1, i32, i32, i32, i32, i64, ptr }
%struct._zend_refcounted_h = type { i32, %union.anon }
%union.anon = type { i32 }
%union.anon.0 = type { i32 }
%union.anon.1 = type { ptr }
%struct._zval_struct = type { %union._zend_value, %union.anon.3, %union.anon.6 }
%union._zend_value = type { i64 }
%union.anon.3 = type { i32 }
%union.anon.6 = type { i32 }
%struct._zend_op_array = type { i8, [3 x i8], i32, ptr, ptr, ptr, i32, i32, ptr, ptr, ptr, ptr, i32, i32, i32, i32, ptr, ptr, ptr, ptr, ptr, i32, i32, ptr, ptr, ptr, i32, i32, i32, i32, ptr, ptr, [6 x ptr] }
%struct._zend_op = type { ptr, %union._znode_op, %union._znode_op, %union._znode_op, i32, i32, i8, i8, i8, i8 }
%union._znode_op = type { i32 }
%struct._zend_string = type { %struct._zend_refcounted_h, i64, i64, [1 x i8] }
%struct._zend_persistent_script = type { %struct._zend_script, i64, i32, i64, i8, i8, i8, i32, i32, ptr, ptr, ptr, i64, %struct.zend_persistent_script_dynamic_members }
%struct._zend_script = type { ptr, %struct._zend_op_array, %struct._zend_array, %struct._zend_array }
%struct.zend_persistent_script_dynamic_members = type { i64, i64, i32, i64 }
%struct._zend_early_binding = type { ptr, ptr, ptr, i32 }

; Function Attrs: nounwind uwtable
define hidden void @zend_accel_finalize_delayed_early_binding_list(ptr noundef %0) #0 {
  %2 = alloca ptr, align 8
  %3 = alloca ptr, align 8
  %4 = alloca ptr, align 8
  %5 = alloca ptr, align 8
  %6 = alloca ptr, align 8
  %7 = alloca ptr, align 8
  %8 = alloca ptr, align 8
  %9 = alloca ptr, align 8
  %10 = alloca ptr, align 8
  %11 = alloca ptr, align 8
  %12 = alloca ptr, align 8
  store ptr %0, ptr %6, align 8
  %13 = load ptr, ptr %6, align 8
  %14 = getelementptr inbounds %struct._zend_persistent_script, ptr %13, i32 0, i32 8
  %15 = load i32, ptr %14, align 8
  %16 = icmp ne i32 %15, 0
  br i1 %16, label %18, label %17

17:                                               ; preds = %1
  br label %114

18:                                               ; preds = %1
  %19 = load ptr, ptr %6, align 8
  %20 = getelementptr inbounds %struct._zend_persistent_script, ptr %19, i32 0, i32 10
  %21 = load ptr, ptr %20, align 8
  store ptr %21, ptr %7, align 8
  %22 = load ptr, ptr %7, align 8
  %23 = load ptr, ptr %6, align 8
  %24 = getelementptr inbounds %struct._zend_persistent_script, ptr %23, i32 0, i32 8
  %25 = load i32, ptr %24, align 8
  %26 = zext i32 %25 to i64
  %27 = getelementptr inbounds %struct._zend_early_binding, ptr %22, i64 %26
  store ptr %27, ptr %8, align 8
  %28 = load ptr, ptr %6, align 8
  %29 = getelementptr inbounds %struct._zend_persistent_script, ptr %28, i32 0, i32 0
  %30 = getelementptr inbounds %struct._zend_script, ptr %29, i32 0, i32 1
  store ptr %30, ptr %9, align 8
  %31 = load ptr, ptr %9, align 8
  %32 = getelementptr inbounds %struct._zend_op_array, ptr %31, i32 0, i32 16
  %33 = load ptr, ptr %32, align 8
  %34 = load ptr, ptr %9, align 8
  %35 = getelementptr inbounds %struct._zend_op_array, ptr %34, i32 0, i32 15
  %36 = load i32, ptr %35, align 4
  %37 = zext i32 %36 to i64
  %38 = getelementptr inbounds %struct._zend_op, ptr %33, i64 %37
  store ptr %38, ptr %10, align 8
  %39 = load ptr, ptr %9, align 8
  %40 = getelementptr inbounds %struct._zend_op_array, ptr %39, i32 0, i32 16
  %41 = load ptr, ptr %40, align 8
  store ptr %41, ptr %11, align 8
  br label %42

42:                                               ; preds = %111, %18
  %43 = load ptr, ptr %11, align 8
  %44 = load ptr, ptr %10, align 8
  %45 = icmp ult ptr %43, %44
  br i1 %45, label %46, label %114

46:                                               ; preds = %42
  %47 = load ptr, ptr %11, align 8
  %48 = getelementptr inbounds %struct._zend_op, ptr %47, i32 0, i32 6
  %49 = load i8, ptr %48, align 4
  %50 = zext i8 %49 to i32
  %51 = icmp eq i32 %50, 145
  br i1 %51, label %52, label %110

52:                                               ; preds = %46
  %53 = load ptr, ptr %11, align 8
  %54 = load ptr, ptr %11, align 8
  %55 = getelementptr inbounds %struct._zend_op, ptr %54, i32 0, i32 1
  %56 = load i32, ptr %55, align 8
  %57 = sext i32 %56 to i64
  %58 = getelementptr inbounds i8, ptr %53, i64 %57
  %59 = getelementptr inbounds %struct._zval_struct, ptr %58, i64 1
  %60 = getelementptr inbounds %struct._zval_struct, ptr %59, i32 0, i32 0
  %61 = load ptr, ptr %60, align 8
  store ptr %61, ptr %12, align 8
  br label %62

62:                                               ; preds = %96, %52
  %63 = load ptr, ptr %7, align 8
  %64 = getelementptr inbounds %struct._zend_early_binding, ptr %63, i32 0, i32 1
  %65 = load ptr, ptr %64, align 8
  %66 = load ptr, ptr %12, align 8
  store ptr %65, ptr %4, align 8
  store ptr %66, ptr %5, align 8
  %67 = load ptr, ptr %4, align 8
  %68 = load ptr, ptr %5, align 8
  %69 = icmp eq ptr %67, %68
  br i1 %69, label %86, label %70

70:                                               ; preds = %62
  %71 = load ptr, ptr %4, align 8
  %72 = load ptr, ptr %5, align 8
  store ptr %71, ptr %2, align 8
  store ptr %72, ptr %3, align 8
  %73 = load ptr, ptr %2, align 8
  %74 = getelementptr inbounds %struct._zend_string, ptr %73, i32 0, i32 2
  %75 = load i64, ptr %74, align 8
  %76 = load ptr, ptr %3, align 8
  %77 = getelementptr inbounds %struct._zend_string, ptr %76, i32 0, i32 2
  %78 = load i64, ptr %77, align 8
  %79 = icmp eq i64 %75, %78
  br i1 %79, label %80, label %84

80:                                               ; preds = %70
  %81 = load ptr, ptr %2, align 8
  %82 = load ptr, ptr %3, align 8
  %83 = call zeroext i1 @zend_string_equal_val(ptr noundef %81, ptr noundef %82) #11
  br label %84

84:                                               ; preds = %80, %70
  %85 = phi i1 [ false, %70 ], [ %83, %80 ]
  br label %86

86:                                               ; preds = %84, %62
  %87 = phi i1 [ true, %62 ], [ %85, %84 ]
  %88 = xor i1 %87, true
  br i1 %88, label %89, label %97

89:                                               ; preds = %86
  %90 = load ptr, ptr %7, align 8
  %91 = getelementptr inbounds %struct._zend_early_binding, ptr %90, i32 1
  store ptr %91, ptr %7, align 8
  %92 = load ptr, ptr %7, align 8
  %93 = load ptr, ptr %8, align 8
  %94 = icmp uge ptr %92, %93
  br i1 %94, label %95, label %96

95:                                               ; preds = %89
  br label %114

96:                                               ; preds = %89
  br label %62

97:                                               ; preds = %86
  %98 = load ptr, ptr %11, align 8
  %99 = getelementptr inbounds %struct._zend_op, ptr %98, i32 0, i32 4
  %100 = load i32, ptr %99, align 4
  %101 = load ptr, ptr %7, align 8
  %102 = getelementptr inbounds %struct._zend_early_binding, ptr %101, i32 0, i32 3
  store i32 %100, ptr %102, align 8
  %103 = load ptr, ptr %7, align 8
  %104 = getelementptr inbounds %struct._zend_early_binding, ptr %103, i32 1
  store ptr %104, ptr %7, align 8
  %105 = load ptr, ptr %7, align 8
  %106 = load ptr, ptr %8, align 8
  %107 = icmp uge ptr %105, %106
  br i1 %107, label %108, label %109

108:                                              ; preds = %97
  br label %114

109:                                              ; preds = %97
  br label %110

110:                                              ; preds = %109, %46
  br label %111

111:                                              ; preds = %110
  %112 = load ptr, ptr %11, align 8
  %113 = getelementptr inbounds %struct._zend_op, ptr %112, i32 1
  store ptr %113, ptr %11, align 8
  br label %42

114:                                              ; preds = %108, %95, %42, %17
  ret void
}