; Function Attrs: nounwind uwtable
define hidden void @zend_accel_finalize_delayed_early_binding_list(ptr nocapture noundef readonly %0) local_unnamed_addr #0 {
  %2 = getelementptr inbounds i8, ptr %0, i64 392
  %3 = load i32, ptr %2, align 8
  %.not = icmp eq i32 %3, 0
  br i1 %.not, label %.loopexit, label %4

4:                                                ; preds = %1
  %5 = getelementptr inbounds i8, ptr %0, i64 408
  %6 = load ptr, ptr %5, align 8
  %7 = zext i32 %3 to i64
  %8 = getelementptr inbounds %struct._zend_early_binding, ptr %6, i64 %7
  %9 = getelementptr inbounds i8, ptr %0, i64 96
  %10 = load ptr, ptr %9, align 8
  %11 = getelementptr inbounds i8, ptr %0, i64 92
  %12 = load i32, ptr %11, align 4
  %13 = zext i32 %12 to i64
  %14 = getelementptr inbounds %struct._zend_op, ptr %10, i64 %13
  %.not46 = icmp eq i32 %12, 0
  br i1 %.not46, label %.loopexit, label %.lr.ph

.lr.ph:                                           ; preds = %4, %42
  %.045 = phi ptr [ %.2, %42 ], [ %6, %4 ]
  %.03244 = phi ptr [ %43, %42 ], [ %10, %4 ]
  %15 = getelementptr inbounds i8, ptr %.03244, i64 28
  %16 = load i8, ptr %15, align 4
  %17 = icmp eq i8 %16, -111
  br i1 %17, label %18, label %42

18:                                               ; preds = %.lr.ph
  %19 = getelementptr inbounds i8, ptr %.03244, i64 8
  %20 = load i32, ptr %19, align 8
  %21 = sext i32 %20 to i64
  %22 = getelementptr inbounds i8, ptr %.03244, i64 %21
  %23 = getelementptr inbounds i8, ptr %22, i64 16
  %24 = load ptr, ptr %23, align 8
  %25 = getelementptr inbounds i8, ptr %24, i64 16
  br label %26

26:                                               ; preds = %.critedge41, %18
  %.1 = phi ptr [ %.045, %18 ], [ %37, %.critedge41 ]
  %27 = getelementptr inbounds i8, ptr %.1, i64 8
  %28 = load ptr, ptr %27, align 8
  %29 = icmp eq ptr %28, %24
  br i1 %29, label %.critedge, label %30

30:                                               ; preds = %26
  %31 = getelementptr inbounds i8, ptr %28, i64 16
  %32 = load i64, ptr %31, align 8
  %33 = load i64, ptr %25, align 8
  %34 = icmp eq i64 %32, %33
  br i1 %34, label %35, label %.critedge41

35:                                               ; preds = %30
  %36 = tail call zeroext i1 @zend_string_equal_val(ptr noundef nonnull %28, ptr noundef nonnull %24) #10
  br i1 %36, label %.critedge, label %.critedge41

.critedge41:                                      ; preds = %30, %35
  %37 = getelementptr inbounds i8, ptr %.1, i64 32
  %.not39 = icmp ult ptr %37, %8
  br i1 %.not39, label %26, label %.loopexit

.critedge:                                        ; preds = %26, %35
  %38 = getelementptr inbounds i8, ptr %.03244, i64 20
  %39 = load i32, ptr %38, align 4
  %40 = getelementptr inbounds i8, ptr %.1, i64 24
  store i32 %39, ptr %40, align 8
  %41 = getelementptr inbounds i8, ptr %.1, i64 32
  %.not38 = icmp ult ptr %41, %8
  br i1 %.not38, label %42, label %.loopexit

42:                                               ; preds = %.lr.ph, %.critedge
  %.2 = phi ptr [ %41, %.critedge ], [ %.045, %.lr.ph ]
  %43 = getelementptr inbounds i8, ptr %.03244, i64 32
  %44 = icmp ult ptr %43, %14
  br i1 %44, label %.lr.ph, label %.loopexit

.loopexit:                                        ; preds = %42, %.critedge, %.critedge41, %4, %1
  ret void
}